target datalayout = "e-m:e-p270:32:32-p271:32:32-p272:64:64-i64:64-i128:128-f80:128-n8:16:32:64-S128"
target triple = "x86_64-pc-linux-gnu"

%"class.icu_77::RuleBasedTimeZone" = type <{ %"class.icu_77::BasicTimeZone", ptr, ptr, ptr, ptr, i8, [7 x i8] }>
%"class.icu_77::BasicTimeZone" = type { %"class.icu_77::TimeZone" }
%"class.icu_77::TimeZone" = type { %"class.icu_77::UObject", %"class.icu_77::UnicodeString" }
%"class.icu_77::UObject" = type { ptr }
%"class.icu_77::UnicodeString" = type { %"class.icu_77::Replaceable", %"union.icu_77::UnicodeString::StackBufferOrFields" }
%"class.icu_77::Replaceable" = type { %"class.icu_77::UObject" }
%"union.icu_77::UnicodeString::StackBufferOrFields" = type { %struct.anon.0, [32 x i8] }
%struct.anon.0 = type { i16, i32, i32, ptr }

; Function Attrs: mustprogress nounwind uwtable
define void @_ZN6icu_7717RuleBasedTimeZone17deleteTransitionsEv(ptr noundef nonnull align 8 dereferenceable(105) %0) #0 align 2 {
  %2 = alloca ptr, align 8
  store ptr %0, ptr %2, align 8, !tbaa !3
  %3 = load ptr, ptr %2, align 8
  %4 = getelementptr inbounds nuw %"class.icu_77::RuleBasedTimeZone", ptr %3, i32 0, i32 4
  %5 = load ptr, ptr %4, align 8, !tbaa !24
  %6 = icmp eq ptr %5, null
  br i1 %6, label %11, label %7

7:                                                ; preds = %1
  %8 = load ptr, ptr %5, align 8, !tbaa !12
  %9 = getelementptr inbounds ptr, ptr %8, i64 1
  %10 = load ptr, ptr %9, align 8
  call void %10(ptr noundef nonnull align 8 dereferenceable(40) %5) #12
  br label %11

11:                                               ; preds = %7, %1
  %12 = getelementptr inbounds nuw %"class.icu_77::RuleBasedTimeZone", ptr %3, i32 0, i32 4
  store ptr null, ptr %12, align 8, !tbaa !24
  ret void
}

; Function Attrs: mustprogress nounwind uwtable
define void @_ZN6icu_7717RuleBasedTimeZone11deleteRulesEv(ptr noundef nonnull align 8 dereferenceable(105) %0) #0 align 2 {
  %2 = alloca ptr, align 8
  store ptr %0, ptr %2, align 8, !tbaa !3
  %3 = load ptr, ptr %2, align 8
  %4 = getelementptr inbounds nuw %"class.icu_77::RuleBasedTimeZone", ptr %3, i32 0, i32 1
  %5 = load ptr, ptr %4, align 8, !tbaa !14
  %6 = icmp eq ptr %5, null
  br i1 %6, label %11, label %7

7:                                                ; preds = %1
  %8 = load ptr, ptr %5, align 8, !tbaa !12
  %9 = getelementptr inbounds ptr, ptr %8, i64 1
  %10 = load ptr, ptr %9, align 8
  call void %10(ptr noundef nonnull align 8 dereferenceable(80) %5) #12
  br label %11

11:                                               ; preds = %7, %1
  %12 = getelementptr inbounds nuw %"class.icu_77::RuleBasedTimeZone", ptr %3, i32 0, i32 1
  store ptr null, ptr %12, align 8, !tbaa !14
  %13 = getelementptr inbounds nuw %"class.icu_77::RuleBasedTimeZone", ptr %3, i32 0, i32 2
  %14 = load ptr, ptr %13, align 8, !tbaa !22
  %15 = icmp ne ptr %14, null
  br i1 %15, label %16, label %26

16:                                               ; preds = %11
  %17 = getelementptr inbounds nuw %"class.icu_77::RuleBasedTimeZone", ptr %3, i32 0, i32 2
  %18 = load ptr, ptr %17, align 8, !tbaa !22
  %19 = icmp eq ptr %18, null
  br i1 %19, label %24, label %20

20:                                               ; preds = %16
  %21 = load ptr, ptr %18, align 8, !tbaa !12
  %22 = getelementptr inbounds ptr, ptr %21, i64 1
  %23 = load ptr, ptr %22, align 8
  call void %23(ptr noundef nonnull align 8 dereferenceable(40) %18) #12
  br label %24

24:                                               ; preds = %20, %16
  %25 = getelementptr inbounds nuw %"class.icu_77::RuleBasedTimeZone", ptr %3, i32 0, i32 2
  store ptr null, ptr %25, align 8, !tbaa !22
  br label %26

26:                                               ; preds = %24, %11
  %27 = getelementptr inbounds nuw %"class.icu_77::RuleBasedTimeZone", ptr %3, i32 0, i32 3
  %28 = load ptr, ptr %27, align 8, !tbaa !23
  %29 = icmp ne ptr %28, null
  br i1 %29, label %30, label %40

30:                                               ; preds = %26
  %31 = getelementptr inbounds nuw %"class.icu_77::RuleBasedTimeZone", ptr %3, i32 0, i32 3
  %32 = load ptr, ptr %31, align 8, !tbaa !23
  %33 = icmp eq ptr %32, null
  br i1 %33, label %38, label %34

34:                                               ; preds = %30
  %35 = load ptr, ptr %32, align 8, !tbaa !12
  %36 = getelementptr inbounds ptr, ptr %35, i64 1
  %37 = load ptr, ptr %36, align 8
  call void %37(ptr noundef nonnull align 8 dereferenceable(40) %32) #12
  br label %38

38:                                               ; preds = %34, %30
  %39 = getelementptr inbounds nuw %"class.icu_77::RuleBasedTimeZone", ptr %3, i32 0, i32 3
  store ptr null, ptr %39, align 8, !tbaa !23
  br label %40

40:                                               ; preds = %38, %26
  ret void
}

; Function Attrs: mustprogress uwtable
define linkonce_odr noundef nonnull align 8 dereferenceable(72) ptr @_ZN6icu_7713BasicTimeZoneaSERKS0_(ptr noundef nonnull align 8 dereferenceable(72) %0, ptr noundef nonnull align 8 dereferenceable(72) %1) #1 comdat align 2 {
  %3 = alloca ptr, align 8
  %4 = alloca ptr, align 8
  store ptr %0, ptr %3, align 8, !tbaa !52
  store ptr %1, ptr %4, align 8, !tbaa !52
  %5 = load ptr, ptr %3, align 8
  %6 = load ptr, ptr %4, align 8, !tbaa !52
  %7 = call noundef nonnull align 8 dereferenceable(72) ptr @_ZN6icu_778TimeZoneaSERKS0_(ptr noundef nonnull align 8 dereferenceable(72) %5, ptr noundef nonnull align 8 dereferenceable(72) %6)
  ret ptr %5
}

; Function Attrs: mustprogress uwtable
define noundef nonnull align 8 dereferenceable(105) ptr @_ZN6icu_7717RuleBasedTimeZoneaSERKS0_(ptr noundef nonnull align 8 dereferenceable(105) %0, ptr noundef nonnull align 8 dereferenceable(105) %1) #1 align 2 {
  %3 = alloca ptr, align 8
  %4 = alloca ptr, align 8
  store ptr %0, ptr %3, align 8, !tbaa !3
  store ptr %1, ptr %4, align 8, !tbaa !3
  %5 = load ptr, ptr %3, align 8
  %6 = load ptr, ptr %4, align 8, !tbaa !3
  %7 = load ptr, ptr %5, align 8, !tbaa !12
  %8 = getelementptr inbounds ptr, ptr %7, i64 21
  %9 = load ptr, ptr %8, align 8
  %10 = call noundef zeroext i1 %9(ptr noundef nonnull align 8 dereferenceable(105) %5, ptr noundef nonnull align 8 dereferenceable(72) %6)
  br i1 %10, label %11, label %33

11:                                               ; preds = %2
  %12 = load ptr, ptr %4, align 8, !tbaa !3
  %13 = call noundef nonnull align 8 dereferenceable(72) ptr @_ZN6icu_7713BasicTimeZoneaSERKS0_(ptr noundef nonnull align 8 dereferenceable(72) %5, ptr noundef nonnull align 8 dereferenceable(72) %12)
  call void @_ZN6icu_7717RuleBasedTimeZone11deleteRulesEv(ptr noundef nonnull align 8 dereferenceable(105) %5)
  %14 = load ptr, ptr %4, align 8, !tbaa !3
  %15 = getelementptr inbounds nuw %"class.icu_77::RuleBasedTimeZone", ptr %14, i32 0, i32 1
  %16 = load ptr, ptr %15, align 8, !tbaa !14
  %17 = load ptr, ptr %16, align 8, !tbaa !12
  %18 = getelementptr inbounds ptr, ptr %17, i64 3
  %19 = load ptr, ptr %18, align 8
  %20 = call noundef ptr %19(ptr noundef nonnull align 8 dereferenceable(80) %16)
  %21 = getelementptr inbounds nuw %"class.icu_77::RuleBasedTimeZone", ptr %5, i32 0, i32 1
  store ptr %20, ptr %21, align 8, !tbaa !14
  %22 = load ptr, ptr %4, align 8, !tbaa !3
  %23 = getelementptr inbounds nuw %"class.icu_77::RuleBasedTimeZone", ptr %22, i32 0, i32 2
  %24 = load ptr, ptr %23, align 8, !tbaa !22
  %25 = call noundef ptr @_ZN6icu_7717RuleBasedTimeZone9copyRulesEPNS_7UVectorE(ptr noundef nonnull align 8 dereferenceable(105) %5, ptr noundef %24)
  %26 = getelementptr inbounds nuw %"class.icu_77::RuleBasedTimeZone", ptr %5, i32 0, i32 2
  store ptr %25, ptr %26, align 8, !tbaa !22
  %27 = load ptr, ptr %4, align 8, !tbaa !3
  %28 = getelementptr inbounds nuw %"class.icu_77::RuleBasedTimeZone", ptr %27, i32 0, i32 3
  %29 = load ptr, ptr %28, align 8, !tbaa !23
  %30 = call noundef ptr @_ZN6icu_7717RuleBasedTimeZone9copyRulesEPNS_7UVectorE(ptr noundef nonnull align 8 dereferenceable(105) %5, ptr noundef %29)
  %31 = getelementptr inbounds nuw %"class.icu_77::RuleBasedTimeZone", ptr %5, i32 0, i32 3
  store ptr %30, ptr %31, align 8, !tbaa !23
  call void @_ZN6icu_7717RuleBasedTimeZone17deleteTransitionsEv(ptr noundef nonnull align 8 dereferenceable(105) %5)
  %32 = getelementptr inbounds nuw %"class.icu_77::RuleBasedTimeZone", ptr %5, i32 0, i32 5
  store i8 0, ptr %32, align 8, !tbaa !25
  br label %33

33:                                               ; preds = %11, %2
  ret ptr %5
}