; Function Attrs: mustprogress uwtable
define noundef nonnull align 8 dereferenceable(105) ptr @_ZN6icu_7717RuleBasedTimeZoneaSERKS0_(ptr noundef nonnull returned align 8 dereferenceable(105) %0, ptr noundef nonnull align 8 dereferenceable(105) %1) local_unnamed_addr #1 align 2 {
  %3 = load ptr, ptr %0, align 8, !tbaa !3
  %4 = getelementptr inbounds nuw i8, ptr %3, i64 168
  %5 = load ptr, ptr %4, align 8
  %6 = tail call noundef zeroext i1 %5(ptr noundef nonnull align 8 dereferenceable(105) %0, ptr noundef nonnull align 8 dereferenceable(72) %1)
  br i1 %6, label %7, label %50

7:                                                ; preds = %2
  %8 = tail call noundef nonnull align 8 dereferenceable(72) ptr @_ZN6icu_778TimeZoneaSERKS0_(ptr noundef nonnull align 8 dereferenceable(72) %0, ptr noundef nonnull align 8 dereferenceable(72) %1)
  %9 = getelementptr inbounds nuw i8, ptr %0, i64 72
  %10 = load ptr, ptr %9, align 8, !tbaa !6
  %11 = icmp eq ptr %10, null
  br i1 %11, label %16, label %12

12:                                               ; preds = %7
  %13 = load ptr, ptr %10, align 8, !tbaa !3
  %14 = getelementptr inbounds nuw i8, ptr %13, i64 8
  %15 = load ptr, ptr %14, align 8
  tail call void %15(ptr noundef nonnull align 8 dereferenceable(80) %10) #14
  br label %16

16:                                               ; preds = %12, %7
  store ptr null, ptr %9, align 8, !tbaa !6
  %17 = getelementptr inbounds nuw i8, ptr %0, i64 80
  %18 = load ptr, ptr %17, align 8, !tbaa !19
  %.not.i = icmp eq ptr %18, null
  br i1 %.not.i, label %23, label %19

19:                                               ; preds = %16
  %20 = load ptr, ptr %18, align 8, !tbaa !3
  %21 = getelementptr inbounds nuw i8, ptr %20, i64 8
  %22 = load ptr, ptr %21, align 8
  tail call void %22(ptr noundef nonnull align 8 dereferenceable(40) %18) #14
  store ptr null, ptr %17, align 8, !tbaa !19
  br label %23

23:                                               ; preds = %19, %16
  %24 = getelementptr inbounds nuw i8, ptr %0, i64 88
  %25 = load ptr, ptr %24, align 8, !tbaa !20
  %.not3.i = icmp eq ptr %25, null
  br i1 %.not3.i, label %_ZN6icu_7717RuleBasedTimeZone11deleteRulesEv.exit, label %26

26:                                               ; preds = %23
  %27 = load ptr, ptr %25, align 8, !tbaa !3
  %28 = getelementptr inbounds nuw i8, ptr %27, i64 8
  %29 = load ptr, ptr %28, align 8
  tail call void %29(ptr noundef nonnull align 8 dereferenceable(40) %25) #14
  store ptr null, ptr %24, align 8, !tbaa !20
  br label %_ZN6icu_7717RuleBasedTimeZone11deleteRulesEv.exit

_ZN6icu_7717RuleBasedTimeZone11deleteRulesEv.exit: ; preds = %23, %26
  %30 = getelementptr inbounds nuw i8, ptr %1, i64 72
  %31 = load ptr, ptr %30, align 8, !tbaa !6
  %32 = load ptr, ptr %31, align 8, !tbaa !3
  %33 = getelementptr inbounds nuw i8, ptr %32, i64 24
  %34 = load ptr, ptr %33, align 8
  %35 = tail call noundef ptr %34(ptr noundef nonnull align 8 dereferenceable(80) %31)
  store ptr %35, ptr %9, align 8, !tbaa !6
  %36 = getelementptr inbounds nuw i8, ptr %1, i64 80
  %37 = load ptr, ptr %36, align 8, !tbaa !19
  %38 = tail call noundef ptr @_ZN6icu_7717RuleBasedTimeZone9copyRulesEPNS_7UVectorE(ptr nonnull align 8 poison, ptr noundef %37)
  store ptr %38, ptr %17, align 8, !tbaa !19
  %39 = getelementptr inbounds nuw i8, ptr %1, i64 88
  %40 = load ptr, ptr %39, align 8, !tbaa !20
  %41 = tail call noundef ptr @_ZN6icu_7717RuleBasedTimeZone9copyRulesEPNS_7UVectorE(ptr nonnull align 8 poison, ptr noundef %40)
  store ptr %41, ptr %24, align 8, !tbaa !20
  %42 = getelementptr inbounds nuw i8, ptr %0, i64 96
  %43 = load ptr, ptr %42, align 8, !tbaa !17
  %44 = icmp eq ptr %43, null
  br i1 %44, label %_ZN6icu_7717RuleBasedTimeZone17deleteTransitionsEv.exit, label %45

45:                                               ; preds = %_ZN6icu_7717RuleBasedTimeZone11deleteRulesEv.exit
  %46 = load ptr, ptr %43, align 8, !tbaa !3
  %47 = getelementptr inbounds nuw i8, ptr %46, i64 8
  %48 = load ptr, ptr %47, align 8
  tail call void %48(ptr noundef nonnull align 8 dereferenceable(40) %43) #14
  br label %_ZN6icu_7717RuleBasedTimeZone17deleteTransitionsEv.exit

_ZN6icu_7717RuleBasedTimeZone17deleteTransitionsEv.exit: ; preds = %_ZN6icu_7717RuleBasedTimeZone11deleteRulesEv.exit, %45
  store ptr null, ptr %42, align 8, !tbaa !17
  %49 = getelementptr inbounds nuw i8, ptr %0, i64 104
  store i8 0, ptr %49, align 8, !tbaa !18
  br label %50

50:                                               ; preds = %_ZN6icu_7717RuleBasedTimeZone17deleteTransitionsEv.exit, %2
  ret ptr %0
}